target datalayout = "e-m:e-p270:32:32-p271:32:32-p272:64:64-i64:64-i128:128-f80:128-n8:16:32:64-S128"
target triple = "x86_64-pc-linux-gnu"

%struct.URLContext = type { ptr, ptr, ptr, ptr, i32, i32, i32, i32, %struct.AVIOInterruptCB, i64, ptr, ptr, i32 }
%struct.AVIOInterruptCB = type { ptr, ptr }
%struct.HTTPContext = type { ptr, ptr, [8192 x i8], ptr, ptr, i32, i32, i64, i32, i64, i64, i64, ptr, ptr, %struct.HTTPAuthState, %struct.HTTPAuthState, ptr, ptr, ptr, ptr, ptr, ptr, ptr, i32, i32, i32, i32, i32, i32, ptr, i32, i32, i32, ptr, ptr, i32, i64, i64, ptr, ptr, ptr, i32, %struct.z_stream_s, ptr, ptr, i32, ptr, i32, i32, i32, i32, i32, ptr, i32, ptr, i32, i32, i32, i32, i32, i64, ptr, ptr, i64, i32, i32, i32, i32 }
%struct.HTTPAuthState = type { i32, [200 x i8], %struct.DigestParams, i32 }
%struct.DigestParams = type { [300 x i8], [10 x i8], [30 x i8], [300 x i8], [10 x i8], i32 }
%struct.z_stream_s = type { ptr, i32, i64, ptr, i32, i64, ptr, ptr, ptr, ptr, ptr, i32, i64, i64 }

@__const.http_write.crlf = private unnamed_addr constant [3 x i8] c"\0D\0A\00", align 1
@.str.146 = private unnamed_addr constant [5 x i8] c"%x\0D\0A\00", align 1

; Function Attrs: inlinehint nounwind uwtable
define internal i32 @ffurl_write(ptr noundef %0, ptr noundef %1, i32 noundef %2) #7 {
  %4 = alloca ptr, align 8
  %5 = alloca ptr, align 8
  %6 = alloca i32, align 4
  store ptr %0, ptr %4, align 8, !tbaa !4
  store ptr %1, ptr %5, align 8, !tbaa !17
  store i32 %2, ptr %6, align 4, !tbaa !34
  %7 = load ptr, ptr %4, align 8, !tbaa !4
  %8 = load ptr, ptr %5, align 8, !tbaa !17
  %9 = load i32, ptr %6, align 4, !tbaa !34
  %10 = call i32 @ffurl_write2(ptr noundef %7, ptr noundef %8, i32 noundef %9)
  ret i32 %10
}

; Function Attrs: nounwind uwtable
define internal i32 @http_write(ptr noundef %0, ptr noundef %1, i32 noundef %2) #0 {
  %4 = alloca i32, align 4
  %5 = alloca ptr, align 8
  %6 = alloca ptr, align 8
  %7 = alloca i32, align 4
  %8 = alloca [11 x i8], align 1
  %9 = alloca i32, align 4
  %10 = alloca [3 x i8], align 1
  %11 = alloca ptr, align 8
  %12 = alloca i32, align 4
  store ptr %0, ptr %5, align 8, !tbaa !4
  store ptr %1, ptr %6, align 8, !tbaa !17
  store i32 %2, ptr %7, align 4, !tbaa !34
  call void @llvm.lifetime.start.p0(i64 11, ptr %8) #11
  call void @llvm.memset.p0.i64(ptr align 1 %8, i8 0, i64 11, i1 false)
  call void @llvm.lifetime.start.p0(i64 4, ptr %9) #11
  call void @llvm.lifetime.start.p0(i64 3, ptr %10) #11
  call void @llvm.memcpy.p0.p0.i64(ptr align 1 %10, ptr align 1 @__const.http_write.crlf, i64 3, i1 false)
  call void @llvm.lifetime.start.p0(i64 8, ptr %11) #11
  %13 = load ptr, ptr %5, align 8, !tbaa !4
  %14 = getelementptr inbounds nuw %struct.URLContext, ptr %13, i32 0, i32 2
  %15 = load ptr, ptr %14, align 8, !tbaa !9
  store ptr %15, ptr %11, align 8, !tbaa !21
  %16 = load ptr, ptr %11, align 8, !tbaa !21
  %17 = getelementptr inbounds nuw %struct.HTTPContext, ptr %16, i32 0, i32 25
  %18 = load i32, ptr %17, align 8, !tbaa !42
  %19 = icmp ne i32 %18, 0
  br i1 %19, label %27, label %20

20:                                               ; preds = %3
  %21 = load ptr, ptr %11, align 8, !tbaa !21
  %22 = getelementptr inbounds nuw %struct.HTTPContext, ptr %21, i32 0, i32 1
  %23 = load ptr, ptr %22, align 8, !tbaa !44
  %24 = load ptr, ptr %6, align 8, !tbaa !17
  %25 = load i32, ptr %7, align 4, !tbaa !34
  %26 = call i32 @ffurl_write(ptr noundef %23, ptr noundef %24, i32 noundef %25)
  store i32 %26, ptr %4, align 4
  store i32 1, ptr %12, align 4
  br label %63

27:                                               ; preds = %3
  %28 = load i32, ptr %7, align 4, !tbaa !34
  %29 = icmp sgt i32 %28, 0
  br i1 %29, label %30, label %61

30:                                               ; preds = %27
  %31 = getelementptr inbounds [11 x i8], ptr %8, i64 0, i64 0
  %32 = load i32, ptr %7, align 4, !tbaa !34
  %33 = call i32 (ptr, i64, ptr, ...) @snprintf(ptr noundef %31, i64 noundef 11, ptr noundef @.str.146, i32 noundef %32) #11
  %34 = load ptr, ptr %11, align 8, !tbaa !21
  %35 = getelementptr inbounds nuw %struct.HTTPContext, ptr %34, i32 0, i32 1
  %36 = load ptr, ptr %35, align 8, !tbaa !44
  %37 = getelementptr inbounds [11 x i8], ptr %8, i64 0, i64 0
  %38 = getelementptr inbounds [11 x i8], ptr %8, i64 0, i64 0
  %39 = call i64 @strlen(ptr noundef %38) #12
  %40 = trunc i64 %39 to i32
  %41 = call i32 @ffurl_write(ptr noundef %36, ptr noundef %37, i32 noundef %40)
  store i32 %41, ptr %9, align 4, !tbaa !34
  %42 = icmp slt i32 %41, 0
  br i1 %42, label %58, label %43

43:                                               ; preds = %30
  %44 = load ptr, ptr %11, align 8, !tbaa !21
  %45 = getelementptr inbounds nuw %struct.HTTPContext, ptr %44, i32 0, i32 1
  %46 = load ptr, ptr %45, align 8, !tbaa !44
  %47 = load ptr, ptr %6, align 8, !tbaa !17
  %48 = load i32, ptr %7, align 4, !tbaa !34
  %49 = call i32 @ffurl_write(ptr noundef %46, ptr noundef %47, i32 noundef %48)
  store i32 %49, ptr %9, align 4, !tbaa !34
  %50 = icmp slt i32 %49, 0
  br i1 %50, label %58, label %51

51:                                               ; preds = %43
  %52 = load ptr, ptr %11, align 8, !tbaa !21
  %53 = getelementptr inbounds nuw %struct.HTTPContext, ptr %52, i32 0, i32 1
  %54 = load ptr, ptr %53, align 8, !tbaa !44
  %55 = getelementptr inbounds [3 x i8], ptr %10, i64 0, i64 0
  %56 = call i32 @ffurl_write(ptr noundef %54, ptr noundef %55, i32 noundef 2)
  store i32 %56, ptr %9, align 4, !tbaa !34
  %57 = icmp slt i32 %56, 0
  br i1 %57, label %58, label %60

58:                                               ; preds = %51, %43, %30
  %59 = load i32, ptr %9, align 4, !tbaa !34
  store i32 %59, ptr %4, align 4
  store i32 1, ptr %12, align 4
  br label %63

60:                                               ; preds = %51
  br label %61

61:                                               ; preds = %60, %27
  %62 = load i32, ptr %7, align 4, !tbaa !34
  store i32 %62, ptr %4, align 4
  store i32 1, ptr %12, align 4
  br label %63

63:                                               ; preds = %61, %58, %20
  call void @llvm.lifetime.end.p0(i64 8, ptr %11) #11
  call void @llvm.lifetime.end.p0(i64 3, ptr %10) #11
  call void @llvm.lifetime.end.p0(i64 4, ptr %9) #11
  call void @llvm.lifetime.end.p0(i64 11, ptr %8) #11
  %64 = load i32, ptr %4, align 4
  ret i32 %64
}