; Function Attrs: nounwind uwtable
define internal i32 @http_write(ptr noundef readonly captures(none) %0, ptr noundef %1, i32 noundef %2) #2 {
  %4 = alloca [11 x i8], align 1
  %5 = alloca [3 x i8], align 1
  call void @llvm.lifetime.start.p0(i64 11, ptr nonnull %4) #15
  call void @llvm.memset.p0.i64(ptr noundef nonnull align 1 dereferenceable(11) %4, i8 0, i64 11, i1 false)
  call void @llvm.lifetime.start.p0(i64 3, ptr nonnull %5) #15
  call void @llvm.memcpy.p0.p0.i64(ptr noundef nonnull align 1 dereferenceable(3) %5, ptr noundef nonnull align 1 dereferenceable(3) @__const.http_write.crlf, i64 3, i1 false)
  %6 = getelementptr inbounds nuw i8, ptr %0, i64 16
  %7 = load ptr, ptr %6, align 8, !tbaa !4
  %8 = getelementptr inbounds nuw i8, ptr %7, i64 10080
  %9 = load i32, ptr %8, align 8, !tbaa !35
  %.not = icmp eq i32 %9, 0
  br i1 %.not, label %10, label %14

10:                                               ; preds = %3
  %11 = getelementptr inbounds nuw i8, ptr %7, i64 8
  %12 = load ptr, ptr %11, align 8, !tbaa !37
  %13 = tail call i32 @ffurl_write2(ptr noundef %12, ptr noundef %1, i32 noundef %2) #15
  br label %33

14:                                               ; preds = %3
  %15 = icmp sgt i32 %2, 0
  br i1 %15, label %16, label %32

16:                                               ; preds = %14
  %17 = call i32 (ptr, i64, ptr, ...) @snprintf(ptr noundef nonnull dereferenceable(1) %4, i64 noundef 11, ptr noundef nonnull @.str.146, i32 noundef %2) #15
  %18 = getelementptr inbounds nuw i8, ptr %7, i64 8
  %19 = load ptr, ptr %18, align 8, !tbaa !37
  %20 = call i64 @strlen(ptr noundef nonnull dereferenceable(1) %4) #16
  %21 = trunc i64 %20 to i32
  %22 = call i32 @ffurl_write2(ptr noundef %19, ptr noundef nonnull %4, i32 noundef %21) #15
  %23 = icmp slt i32 %22, 0
  br i1 %23, label %33, label %24

24:                                               ; preds = %16
  %25 = load ptr, ptr %18, align 8, !tbaa !37
  %26 = call i32 @ffurl_write2(ptr noundef %25, ptr noundef %1, i32 noundef %2) #15
  %27 = icmp slt i32 %26, 0
  br i1 %27, label %33, label %28

28:                                               ; preds = %24
  %29 = load ptr, ptr %18, align 8, !tbaa !37
  %30 = call i32 @ffurl_write2(ptr noundef %29, ptr noundef nonnull %5, i32 noundef 2) #15
  %31 = icmp slt i32 %30, 0
  br i1 %31, label %33, label %32

32:                                               ; preds = %28, %14
  br label %33

33:                                               ; preds = %16, %24, %28, %32, %10
  %.0 = phi i32 [ %2, %32 ], [ %13, %10 ], [ %22, %16 ], [ %26, %24 ], [ %30, %28 ]
  call void @llvm.lifetime.end.p0(i64 3, ptr nonnull %5) #15
  call void @llvm.lifetime.end.p0(i64 11, ptr nonnull %4) #15
  ret i32 %.0
}